; Function Attrs: cold mustprogress nofree norecurse nosync nounwind optsize willreturn memory(read, argmem: readwrite, inaccessiblemem: none) uwtable
define void @ff_dct_encode_init(ptr noundef captures(none) initializes((6704, 6712), (6896, 6904)) %0) local_unnamed_addr #4 {
  %2 = getelementptr inbounds nuw i8, ptr %0, i64 6896
  store ptr @dct_quantize_c, ptr %2, align 8, !tbaa !62
  %3 = getelementptr inbounds nuw i8, ptr %0, i64 6704
  store ptr @denoise_dct_c, ptr %3, align 8, !tbaa !63
  %4 = getelementptr inbounds nuw i8, ptr %0, i64 472
  %5 = load ptr, ptr %4, align 8, !tbaa !56
  %6 = getelementptr inbounds nuw i8, ptr %5, i64 492
  %7 = load i32, ptr %6, align 4, !tbaa !64
  %.not = icmp eq i32 %7, 0
  br i1 %.not, label %9, label %8

8:                                                ; preds = %1
  store ptr @dct_quantize_trellis_c, ptr %2, align 8, !tbaa !62
  br label %9

9:                                                ; preds = %8, %1
  ret void
}